; Function Attrs: mustprogress uwtable
define dso_local noundef ptr @_ZN11V3LexerBase16yy_create_bufferERSii(ptr noundef nonnull align 8 dereferenceable(732) %0, ptr noundef nonnull align 8 dereferenceable(16) %1, i32 noundef %2) unnamed_addr #4 align 2 {
  %4 = tail call noalias noundef dereferenceable_or_null(64) ptr @malloc(i64 noundef 64) #31
  %.not = icmp eq ptr %4, null
  br i1 %.not, label %5, label %9

5:                                                ; preds = %3
  %6 = load ptr, ptr %0, align 8
  %7 = getelementptr inbounds i8, ptr %6, i64 112
  %8 = load ptr, ptr %7, align 8
  tail call void %8(ptr noundef nonnull align 8 dereferenceable(732) %0, ptr noundef nonnull @.str.28)
  br label %9

9:                                                ; preds = %5, %3
  %10 = getelementptr inbounds i8, ptr %4, i64 24
  store i32 %2, ptr %10, align 8
  %11 = add nsw i32 %2, 2
  %12 = sext i32 %11 to i64
  %13 = tail call noalias noundef ptr @malloc(i64 noundef %12) #31
  %14 = getelementptr inbounds i8, ptr %4, i64 8
  store ptr %13, ptr %14, align 8
  %.not10 = icmp eq ptr %13, null
  br i1 %.not10, label %15, label %19

15:                                               ; preds = %9
  %16 = load ptr, ptr %0, align 8
  %17 = getelementptr inbounds i8, ptr %16, i64 112
  %18 = load ptr, ptr %17, align 8
  tail call void %18(ptr noundef nonnull align 8 dereferenceable(732) %0, ptr noundef nonnull @.str.28)
  br label %19

19:                                               ; preds = %15, %9
  %20 = getelementptr inbounds i8, ptr %4, i64 32
  store i32 1, ptr %20, align 8
  tail call void @_ZN11V3LexerBase14yy_init_bufferEP15yy_buffer_stateRSi(ptr noundef nonnull align 8 dereferenceable(732) %0, ptr noundef nonnull %4, ptr noundef nonnull align 8 dereferenceable(16) %1)
  ret ptr %4
}